target datalayout = "e-m:e-p270:32:32-p271:32:32-p272:64:64-i64:64-i128:128-f80:128-n8:16:32:64-S128"
target triple = "x86_64-unknown-linux-gnu"

%"class.facebook::velox::Type.base" = type <{ %"class.facebook::velox::Tree", %"class.facebook::velox::ISerializable", i8 }>
%"class.facebook::velox::Tree" = type { ptr }
%"class.facebook::velox::ISerializable" = type { ptr }
%"class.facebook::velox::Type" = type <{ %"class.facebook::velox::Tree", %"class.facebook::velox::ISerializable", i8, [7 x i8] }>
%"class.facebook::velox::OpaqueType" = type { %"class.facebook::velox::TypeBase.base.101", %"struct.std::type_index" }
%"class.facebook::velox::TypeBase.base.101" = type { %"class.facebook::velox::Type.base" }
%"struct.std::type_index" = type { ptr }

@_ZTVN8facebook5velox13ISerializableE = linkonce_odr unnamed_addr constant { [5 x ptr] } { [5 x ptr] [ptr null, ptr @_ZTIN8facebook5velox13ISerializableE, ptr @__cxa_pure_virtual, ptr @_ZN8facebook5velox13ISerializableD2Ev, ptr @_ZN8facebook5velox13ISerializableD0Ev] }, comdat, align 8

; Function Attrs: mustprogress nounwind uwtable
define linkonce_odr void @_ZN8facebook5velox13ISerializableC2Ev(ptr noundef nonnull align 8 dereferenceable(8) %this) unnamed_addr #2 comdat align 2 {
entry:
  %this.addr = alloca ptr, align 8
  store ptr %this, ptr %this.addr, align 8
  %this1 = load ptr, ptr %this.addr, align 8
  store ptr getelementptr inbounds ({ [5 x ptr] }, ptr @_ZTVN8facebook5velox13ISerializableE, i32 0, i32 0, i32 2), ptr %this1, align 8
  ret void
}

; Function Attrs: mustprogress nounwind uwtable
define linkonce_odr void @_ZN8facebook5velox4TreeIKSt10shared_ptrIKNS0_4TypeEEEC2Ev(ptr noundef nonnull align 8 dereferenceable(8) %this) unnamed_addr #2 comdat align 2 {
entry:
  %this.addr = alloca ptr, align 8
  store ptr %this, ptr %this.addr, align 8
  %this1 = load ptr, ptr %this.addr, align 8
  store ptr getelementptr inbounds ({ [6 x ptr] }, ptr @_ZTVN8facebook5velox4TreeIKSt10shared_ptrIKNS0_4TypeEEEE, i32 0, i32 0, i32 2), ptr %this1, align 8
  ret void
}

; Function Attrs: mustprogress nounwind uwtable
define linkonce_odr void @_ZN8facebook5velox4TypeC2ENS0_8TypeKindE(ptr noundef nonnull align 8 dereferenceable(17) %this, i8 noundef signext %kind) unnamed_addr #2 comdat align 2 {
entry:
  %this.addr = alloca ptr, align 8
  %kind.addr = alloca i8, align 1
  store ptr %this, ptr %this.addr, align 8
  store i8 %kind, ptr %kind.addr, align 1
  %this1 = load ptr, ptr %this.addr, align 8
  call void @_ZN8facebook5velox4TreeIKSt10shared_ptrIKNS0_4TypeEEEC2Ev(ptr noundef nonnull align 8 dereferenceable(8) %this1) #1
  %0 = getelementptr inbounds i8, ptr %this1, i64 8
  call void @_ZN8facebook5velox13ISerializableC2Ev(ptr noundef nonnull align 8 dereferenceable(8) %0) #1
  store ptr getelementptr inbounds ({ [17 x ptr], [5 x ptr] }, ptr @_ZTVN8facebook5velox4TypeE, i32 0, i32 0, i32 2), ptr %this1, align 8
  %add.ptr = getelementptr inbounds i8, ptr %this1, i64 8
  store ptr getelementptr inbounds ({ [17 x ptr], [5 x ptr] }, ptr @_ZTVN8facebook5velox4TypeE, i32 0, i32 1, i32 2), ptr %add.ptr, align 8
  %kind_ = getelementptr inbounds %"class.facebook::velox::Type", ptr %this1, i32 0, i32 2
  %1 = load i8, ptr %kind.addr, align 1
  store i8 %1, ptr %kind_, align 8
  ret void
}

; Function Attrs: mustprogress nounwind uwtable
define linkonce_odr void @_ZN8facebook5velox8TypeBaseILNS0_8TypeKindE35EEC2Ev(ptr noundef nonnull align 8 dereferenceable(17) %this) unnamed_addr #2 comdat align 2 {
entry:
  %this.addr = alloca ptr, align 8
  store ptr %this, ptr %this.addr, align 8
  %this1 = load ptr, ptr %this.addr, align 8
  call void @_ZN8facebook5velox4TypeC2ENS0_8TypeKindE(ptr noundef nonnull align 8 dereferenceable(17) %this1, i8 noundef signext 35)
  store ptr getelementptr inbounds ({ [17 x ptr], [5 x ptr] }, ptr @_ZTVN8facebook5velox8TypeBaseILNS0_8TypeKindE35EEE, i32 0, i32 0, i32 2), ptr %this1, align 8
  %add.ptr = getelementptr inbounds i8, ptr %this1, i64 8
  store ptr getelementptr inbounds ({ [17 x ptr], [5 x ptr] }, ptr @_ZTVN8facebook5velox8TypeBaseILNS0_8TypeKindE35EEE, i32 0, i32 1, i32 2), ptr %add.ptr, align 8
  ret void
}

; Function Attrs: mustprogress uwtable
define void @_ZN8facebook5velox10OpaqueTypeC2ERKSt10type_index(ptr noundef nonnull align 8 dereferenceable(32) %this, ptr noundef nonnull align 8 dereferenceable(8) %typeIndex) unnamed_addr #0 align 2 {
entry:
  %this.addr = alloca ptr, align 8
  %typeIndex.addr = alloca ptr, align 8
  store ptr %this, ptr %this.addr, align 8
  store ptr %typeIndex, ptr %typeIndex.addr, align 8
  %this1 = load ptr, ptr %this.addr, align 8
  call void @_ZN8facebook5velox8TypeBaseILNS0_8TypeKindE35EEC2Ev(ptr noundef nonnull align 8 dereferenceable(17) %this1)
  store ptr getelementptr inbounds ({ [19 x ptr], [5 x ptr] }, ptr @_ZTVN8facebook5velox10OpaqueTypeE, i32 0, i32 0, i32 2), ptr %this1, align 8
  %add.ptr = getelementptr inbounds i8, ptr %this1, i64 8
  store ptr getelementptr inbounds ({ [19 x ptr], [5 x ptr] }, ptr @_ZTVN8facebook5velox10OpaqueTypeE, i32 0, i32 1, i32 2), ptr %add.ptr, align 8
  %typeIndex_ = getelementptr inbounds %"class.facebook::velox::OpaqueType", ptr %this1, i32 0, i32 1
  %0 = load ptr, ptr %typeIndex.addr, align 8
  call void @llvm.memcpy.p0.p0.i64(ptr align 8 %typeIndex_, ptr align 8 %0, i64 8, i1 false)
  ret void
}