; Function Attrs: mustprogress nofree norecurse nosync nounwind willreturn memory(argmem: readwrite) uwtable
define void @_ZN8facebook5velox10OpaqueTypeC2ERKSt10type_index(ptr nocapture noundef nonnull writeonly align 8 dereferenceable(32) %this, ptr nocapture noundef nonnull readonly align 8 dereferenceable(8) %typeIndex) unnamed_addr #12 align 2 {
entry:
  %0 = getelementptr inbounds i8, ptr %this, i64 8
  %kind_.i.i = getelementptr inbounds i8, ptr %this, i64 16
  store i8 35, ptr %kind_.i.i, align 8
  store ptr getelementptr inbounds ({ [19 x ptr], [5 x ptr] }, ptr @_ZTVN8facebook5velox10OpaqueTypeE, i64 0, i32 0, i64 2), ptr %this, align 8
  store ptr getelementptr inbounds ({ [19 x ptr], [5 x ptr] }, ptr @_ZTVN8facebook5velox10OpaqueTypeE, i64 0, i32 1, i64 2), ptr %0, align 8
  %typeIndex_ = getelementptr inbounds i8, ptr %this, i64 24
  %1 = load i64, ptr %typeIndex, align 8
  store i64 %1, ptr %typeIndex_, align 8
  ret void
}